target datalayout = "e-m:e-p270:32:32-p271:32:32-p272:64:64-i64:64-i128:128-f80:128-n8:16:32:64-S128"
target triple = "x86_64-pc-linux-gnu"

%struct.slurm_conf_t = type { i64, ptr, i16, ptr, ptr, ptr, ptr, ptr, i16, ptr, ptr, ptr, ptr, ptr, ptr, ptr, i16, ptr, ptr, ptr, ptr, i16, ptr, ptr, ptr, i64, ptr, ptr, ptr, ptr, i16, ptr, ptr, i16, i32, ptr, i32, ptr, i32, i32, ptr, ptr, i64, i64, ptr, i16, i16, ptr, i32, i32, ptr, i32, ptr, i32, i16, i16, i16, ptr, i16, i16, ptr, ptr, i32, i16, i16, ptr, i32, i16, ptr, ptr, ptr, ptr, i16, ptr, ptr, ptr, ptr, i32, ptr, ptr, ptr, ptr, i16, i16, ptr, i32, i32, i32, i16, i16, ptr, ptr, i16, ptr, ptr, i32, i32, i32, i32, i32, i64, i32, i32, i16, ptr, ptr, i32, ptr, ptr, ptr, i16, i32, ptr, ptr, i16, ptr, ptr, i32, i16, ptr, ptr, ptr, ptr, i32, i32, i16, i16, i32, ptr, i16, ptr, i32, i32, i32, i32, i32, i32, ptr, i16, ptr, ptr, i32, i16, ptr, i32, i16, i16, ptr, ptr, ptr, i16, ptr, ptr, ptr, ptr, i16, i16, ptr, i16, ptr, i16, ptr, i16, ptr, i16, ptr, ptr, ptr, ptr, i16, ptr, ptr, ptr, i32, ptr, i32, ptr, ptr, i16, ptr, ptr, i32, i16, ptr, ptr, i16, i16, ptr, i16, ptr, ptr, ptr, i32, ptr, i16, i16, ptr, ptr, ptr, ptr, ptr, ptr, ptr, ptr, i16, i32, i16, ptr, ptr, ptr, ptr, i32, ptr, ptr, ptr, i16, ptr, ptr, ptr, i16, ptr, i16, ptr, i16, i16, ptr }
%struct.node_record = type { ptr, ptr, i16, i64, i64, ptr, ptr, ptr, i16, ptr, i16, i16, i32, i32, i64, ptr, i16, i16, ptr, ptr, ptr, ptr, ptr, i64, i64, ptr, ptr, ptr, ptr, i32, ptr, ptr, i64, i64, i32, ptr, i64, ptr, i32, i16, ptr, ptr, i32, ptr, i32, i8, ptr, i32, i16, i16, ptr, i16, i64, i16, i64, ptr, i64, i32, i16, i64, i16, ptr, i16, i64, ptr, i64, i16, i32, i16, ptr, ptr, ptr, i16, i32, i16, i16, i32, ptr, i16, i32 }

@slurm_conf = external global %struct.slurm_conf_t, align 8
@part_list = external global ptr, align 8

; Function Attrs: nounwind uwtable
define dso_local void @power_save_set_timeouts(ptr noundef %0) #0 {
  %2 = alloca ptr, align 8
  %3 = alloca ptr, align 8
  %4 = alloca i32, align 4
  %5 = alloca i32, align 4
  store ptr %0, ptr %2, align 8
  call void @llvm.lifetime.start.p0(i64 8, ptr %3) #9
  call void @llvm.lifetime.start.p0(i64 4, ptr %4) #9
  store i32 0, ptr %4, align 4
  br label %6

6:                                                ; preds = %17, %1
  %7 = call ptr @next_node(ptr noundef %4)
  store ptr %7, ptr %3, align 8
  %8 = icmp ne ptr %7, null
  br i1 %8, label %10, label %9

9:                                                ; preds = %6
  call void @llvm.lifetime.end.p0(i64 4, ptr %4) #9
  br label %20

10:                                               ; preds = %6
  %11 = load ptr, ptr %3, align 8
  %12 = getelementptr inbounds nuw %struct.node_record, ptr %11, i32 0, i32 67
  store i32 -2, ptr %12, align 4
  %13 = load ptr, ptr %3, align 8
  %14 = getelementptr inbounds nuw %struct.node_record, ptr %13, i32 0, i32 68
  store i16 -2, ptr %14, align 8
  %15 = load ptr, ptr %3, align 8
  %16 = getelementptr inbounds nuw %struct.node_record, ptr %15, i32 0, i32 60
  store i16 -2, ptr %16, align 8
  br label %17

17:                                               ; preds = %10
  %18 = load i32, ptr %4, align 4
  %19 = add nsw i32 %18, 1
  store i32 %19, ptr %4, align 4
  br label %6, !llvm.loop !17

20:                                               ; preds = %9
  %21 = load ptr, ptr @part_list, align 8
  %22 = load ptr, ptr %2, align 8
  %23 = call i32 @list_for_each(ptr noundef %21, ptr noundef @_set_partition_options, ptr noundef %22)
  call void @llvm.lifetime.start.p0(i64 4, ptr %5) #9
  store i32 0, ptr %5, align 4
  br label %24

24:                                               ; preds = %79, %20
  %25 = call ptr @next_node(ptr noundef %5)
  store ptr %25, ptr %3, align 8
  %26 = icmp ne ptr %25, null
  br i1 %26, label %28, label %27

27:                                               ; preds = %24
  call void @llvm.lifetime.end.p0(i64 4, ptr %5) #9
  br label %82

28:                                               ; preds = %24
  %29 = load ptr, ptr %3, align 8
  %30 = getelementptr inbounds nuw %struct.node_record, ptr %29, i32 0, i32 67
  %31 = load i32, ptr %30, align 4
  %32 = icmp eq i32 %31, -2
  br i1 %32, label %33, label %35

33:                                               ; preds = %28
  %34 = load i32, ptr getelementptr inbounds nuw (%struct.slurm_conf_t, ptr @slurm_conf, i32 0, i32 205), align 4
  br label %39

35:                                               ; preds = %28
  %36 = load ptr, ptr %3, align 8
  %37 = getelementptr inbounds nuw %struct.node_record, ptr %36, i32 0, i32 67
  %38 = load i32, ptr %37, align 4
  br label %39

39:                                               ; preds = %35, %33
  %40 = phi i32 [ %34, %33 ], [ %38, %35 ]
  %41 = load ptr, ptr %3, align 8
  %42 = getelementptr inbounds nuw %struct.node_record, ptr %41, i32 0, i32 67
  store i32 %40, ptr %42, align 4
  %43 = load ptr, ptr %3, align 8
  %44 = getelementptr inbounds nuw %struct.node_record, ptr %43, i32 0, i32 68
  %45 = load i16, ptr %44, align 8
  %46 = zext i16 %45 to i32
  %47 = icmp eq i32 %46, 65534
  br i1 %47, label %48, label %51

48:                                               ; preds = %39
  %49 = load i16, ptr getelementptr inbounds nuw (%struct.slurm_conf_t, ptr @slurm_conf, i32 0, i32 206), align 8
  %50 = zext i16 %49 to i32
  br label %56

51:                                               ; preds = %39
  %52 = load ptr, ptr %3, align 8
  %53 = getelementptr inbounds nuw %struct.node_record, ptr %52, i32 0, i32 68
  %54 = load i16, ptr %53, align 8
  %55 = zext i16 %54 to i32
  br label %56

56:                                               ; preds = %51, %48
  %57 = phi i32 [ %50, %48 ], [ %55, %51 ]
  %58 = trunc i32 %57 to i16
  %59 = load ptr, ptr %3, align 8
  %60 = getelementptr inbounds nuw %struct.node_record, ptr %59, i32 0, i32 68
  store i16 %58, ptr %60, align 8
  %61 = load ptr, ptr %3, align 8
  %62 = getelementptr inbounds nuw %struct.node_record, ptr %61, i32 0, i32 60
  %63 = load i16, ptr %62, align 8
  %64 = zext i16 %63 to i32
  %65 = icmp eq i32 %64, 65534
  br i1 %65, label %66, label %69

66:                                               ; preds = %56
  %67 = load i16, ptr getelementptr inbounds nuw (%struct.slurm_conf_t, ptr @slurm_conf, i32 0, i32 156), align 2
  %68 = zext i16 %67 to i32
  br label %74

69:                                               ; preds = %56
  %70 = load ptr, ptr %3, align 8
  %71 = getelementptr inbounds nuw %struct.node_record, ptr %70, i32 0, i32 60
  %72 = load i16, ptr %71, align 8
  %73 = zext i16 %72 to i32
  br label %74

74:                                               ; preds = %69, %66
  %75 = phi i32 [ %68, %66 ], [ %73, %69 ]
  %76 = trunc i32 %75 to i16
  %77 = load ptr, ptr %3, align 8
  %78 = getelementptr inbounds nuw %struct.node_record, ptr %77, i32 0, i32 60
  store i16 %76, ptr %78, align 8
  br label %79

79:                                               ; preds = %74
  %80 = load i32, ptr %5, align 4
  %81 = add nsw i32 %80, 1
  store i32 %81, ptr %5, align 4
  br label %24, !llvm.loop !18

82:                                               ; preds = %27
  call void @llvm.lifetime.end.p0(i64 8, ptr %3) #9
  ret void
}