; Function Attrs: nounwind uwtable
define dso_local void @power_save_set_timeouts(ptr noundef %0) local_unnamed_addr #0 {
  %2 = alloca i32, align 4
  %3 = alloca i32, align 4
  call void @llvm.lifetime.start.p0(i64 4, ptr nonnull %2) #12
  store i32 0, ptr %2, align 4
  %4 = call ptr @next_node(ptr noundef nonnull %2) #12
  %.not20 = icmp eq ptr %4, null
  br i1 %.not20, label %._crit_edge, label %.lr.ph

._crit_edge:                                      ; preds = %.lr.ph, %1
  call void @llvm.lifetime.end.p0(i64 4, ptr nonnull %2) #12
  %5 = load ptr, ptr @part_list, align 8
  %6 = call i32 @list_for_each(ptr noundef %5, ptr noundef nonnull @_set_partition_options, ptr noundef %0) #12
  call void @llvm.lifetime.start.p0(i64 4, ptr nonnull %3) #12
  store i32 0, ptr %3, align 4
  %7 = call ptr @next_node(ptr noundef nonnull %3) #12
  %.not1821 = icmp eq ptr %7, null
  br i1 %.not1821, label %._crit_edge24, label %.lr.ph23

.lr.ph:                                           ; preds = %1, %.lr.ph
  %8 = phi ptr [ %14, %.lr.ph ], [ %4, %1 ]
  %9 = getelementptr inbounds nuw i8, ptr %8, i64 468
  store i32 -2, ptr %9, align 4
  %10 = getelementptr inbounds nuw i8, ptr %8, i64 472
  store i16 -2, ptr %10, align 8
  %11 = getelementptr inbounds nuw i8, ptr %8, i64 416
  store i16 -2, ptr %11, align 8
  %12 = load i32, ptr %2, align 4
  %13 = add nsw i32 %12, 1
  store i32 %13, ptr %2, align 4
  %14 = call ptr @next_node(ptr noundef nonnull %2) #12
  %.not = icmp eq ptr %14, null
  br i1 %.not, label %._crit_edge, label %.lr.ph, !llvm.loop !20

._crit_edge24:                                    ; preds = %.lr.ph23, %._crit_edge
  call void @llvm.lifetime.end.p0(i64 4, ptr nonnull %3) #12
  ret void

.lr.ph23:                                         ; preds = %._crit_edge, %.lr.ph23
  %15 = phi ptr [ %31, %.lr.ph23 ], [ %7, %._crit_edge ]
  %16 = getelementptr inbounds nuw i8, ptr %15, i64 468
  %17 = load i32, ptr %16, align 4
  %18 = icmp eq i32 %17, -2
  %19 = load i32, ptr getelementptr inbounds nuw (i8, ptr @slurm_conf, i64 1380), align 4
  %20 = select i1 %18, i32 %19, i32 %17
  store i32 %20, ptr %16, align 4
  %21 = getelementptr inbounds nuw i8, ptr %15, i64 472
  %22 = load i16, ptr %21, align 8
  %23 = icmp eq i16 %22, -2
  %24 = load i16, ptr getelementptr inbounds nuw (i8, ptr @slurm_conf, i64 1384), align 8
  %.in = select i1 %23, i16 %24, i16 %22
  store i16 %.in, ptr %21, align 8
  %25 = getelementptr inbounds nuw i8, ptr %15, i64 416
  %26 = load i16, ptr %25, align 8
  %27 = icmp eq i16 %26, -2
  %28 = load i16, ptr getelementptr inbounds nuw (i8, ptr @slurm_conf, i64 1018), align 2
  %.in19 = select i1 %27, i16 %28, i16 %26
  store i16 %.in19, ptr %25, align 8
  %29 = load i32, ptr %3, align 4
  %30 = add nsw i32 %29, 1
  store i32 %30, ptr %3, align 4
  %31 = call ptr @next_node(ptr noundef nonnull %3) #12
  %.not18 = icmp eq ptr %31, null
  br i1 %.not18, label %._crit_edge24, label %.lr.ph23, !llvm.loop !21
}